(dp0
S'Ru'
p1
(F0.0024283898184332205
F2.6397329018498255
tp2
sS'Re'
p3
(F0.002862030857439153
F2.631714813386562
tp4
sS'Ra'
p5
(F0.017519097975839663
F3.2758345866020275
tp6
sS'Rb'
p7
(F0.001734564156023729
F3.6651573264293558
tp8
sS'Rn'
p9
(F0.01075429776734712
F4.245132391938716
tp10
sS'Rh'
p11
(F0.0022982975067314406
F2.6094423454330538
tp12
sS'Be'
p13
(F0.003685948831550424
F2.4455169812952313
tp14
sS'Ba'
p15
(F0.015784533819815934
F3.2989979532736764
tp16
sS'Bi'
p17
(F0.02246260582050729
F3.893227398273283
tp18
sS'Bk'
p19
(F0.0005637333507077119
F2.9747108198705927
tp20
sS'Br'
p21
(F0.010884390079048898
F3.731974730289881
tp22
sS'H'
p23
(F0.0019080205716261018
F2.5711337005530193
tp24
sS'P'
p25
(F0.013226051689680933
F3.694556984127987
tp26
sS'Os'
p27
(F0.0016044718443219493
F2.7796040005978586
tp28
sS'Es'
p29
(F0.0005203692468071187
F2.939074871144979
tp30
sS'Hg'
p31
(F0.016695180001728392
F2.4098810325696176
tp32
sS'Ge'
p33
(F0.01643499537832483
F3.813046513640652
tp34
sS'Gd'
p35
(F0.000390276935105339
F3.0005468826966624
tp36
sS'Ga'
p37
(F0.017996103118746186
F3.9048090816091072
tp38
sS'Pr'
p39
(F0.00043364103900593224
F3.2125807776140634
tp40
sS'Pt'
p41
(F0.003469128312047458
F2.4535350697584946
tp42
sS'Pu'
p43
(F0.0006938256624094916
F3.0504372109125217
tp44
sS'C'
p45
(F0.0045532309095622885
F3.4308509635584463
tp46
sS'Pb'
p47
(F0.02875040088609331
F3.828191791849038
tp48
sS'Pa'
p49
(F0.0009540102858130509
F3.0504372109125217
tp50
sS'Pd'
p51
(F0.002081476987228475
F2.5827153838888437
tp52
sS'Cd'
p53
(F0.009887015689335255
F2.537279549263686
tp54
sS'Po'
p55
(F0.014093333767692798
F4.195242063722858
tp56
sS'Pm'
p57
(F0.000390276935105339
F3.1600177532437836
tp58
sS'Ho'
p59
(F0.00030354872730415256
F3.0370737301404165
tp60
sS'Hf'
p61
(F0.003122215480842712
F2.798312873678806
tp62
sS'K'
p63
(F0.001517743636520763
F3.396105913550973
tp64
sS'He'
p65
(F0.0024283898184332205
F2.1043027722474816
tp66
sS'Md'
p67
(F0.00047700514290652544
F2.916802403191471
tp68
sS'Mg'
p69
(F0.004813415532965848
F2.6914050275019648
tp70
sS'Mo'
p71
(F0.0024283898184332205
F2.7190228877643157
tp72
sS'Mn'
p73
(F0.0005637333507077119
F2.6379511044135446
tp74
sS'O'
p75
(F0.0026018462340355935
F3.1181455134911875
tp76
sS'S'
p77
(F0.011881764468762544
F3.594776327696269
tp78
sS'W'
p79
(F0.002905394961339746
F2.7341681659727013
tp80
sS'Zn'
p81
(F0.00537714888367356
F2.4615531582217574
tp82
sS'Eu'
p83
(F0.0003469128312047458
F3.111909222464205
tp84
sS'Zr'
p85
(F0.0029921231691409328
F2.78316759547042
tp86
sS'Er'
p87
(F0.00030354872730415256
F3.0210375532138904
tp88
sS'Ni'
p89
(F0.0006504615585088984
F2.5248069672097215
tp90
sS'No'
p91
(F0.00047700514290652544
F2.893639036519822
tp92
sS'Na'
p93
(F0.0013009231170177968
F2.6575508762126323
tp94
sS'Nb'
p95
(F0.002558482130135
F2.819694442914174
tp96
sS'Nd'
p97
(F0.00043364103900593224
F3.184962917351713
tp98
sS'Ne'
p99
(F0.0018212923638249155
F2.88918454292912
tp100
sS'Np'
p101
(F0.0008239179741112712
F3.0504372109125217
tp102
sS'Fr'
p103
(F0.002168205195029661
F4.365403718887663
tp104
sS'Fe'
p105
(F0.0005637333507077119
F2.5942970672246677
tp106
sS'Fm'
p107
(F0.0005203692468071187
F2.927493187809155
tp108
sS'B'
p109
(F0.00780553870210678
F3.6375394661670053
tp110
sS'F'
p111
(F0.002168205195029661
F2.996983287824101
tp112
sS'Sr'
p113
(F0.010190564416639406
F3.2437622327489755
tp114
sS'N'
p115
(F0.0029921231691409328
F3.260689308393642
tp116
sS'Kr'
p117
(F0.00954010285813051
F3.689211591819145
tp118
sS'Si'
p119
(F0.017432369768038476
F3.826409994412757
tp120
sS'Sn'
p121
(F0.024587446911636356
F3.9128271700723705
tp122
sS'Sm'
p123
(F0.0003469128312047458
F3.1359634878539944
tp124
sS'V'
p125
(F0.0006938256624094916
F2.8009855698332267
tp126
sS'Sc'
p127
(F0.0008239179741112712
F2.935511276272418
tp128
sS'Sb'
p129
(F0.019470482651366357
F3.9377723341802997
tp130
sS'Se'
p131
(F0.012618954235072628
F3.746229109780127
tp132
sS'Co'
p133
(F0.0006070974546083051
F2.5586611184990544
tp134
sS'Cm'
p135
(F0.0005637333507077119
F2.9631291365347683
tp136
sS'Cl'
p137
(F0.009843651585434663
F3.5163772404999194
tp138
sS'Ca'
p139
(F0.010320656728341187
F3.0281647429590133
tp140
sS'Cf'
p141
(F0.0005637333507077119
F2.9515474531989443
tp142
sS'Ce'
p143
(F0.0005637333507077119
F3.1680358417070464
tp144
sS'Xe'
p145
(F0.014396882494996951
F3.923517954690054
tp146
sS'Lu'
p147
(F0.0017779282599243223
F3.242871334030835
tp148
sS'Cs'
p149
(F0.001951384675526695
F4.024189509839913
tp150
sS'Cr'
p151
(F0.0006504615585088984
F2.6931868249382456
tp152
sS'Cu'
p153
(F0.00021682051950296612
F3.113691019900486
tp154
sS'La'
p155
(F0.0007371897663100849
F3.1377452852902747
tp156
sS'Li'
p157
(F0.0010841025975148306
F2.183592758161972
tp158
sS'Lw'
p159
(F0.00047700514290652544
F2.882948251902138
tp160
sS'Tl'
p161
(F0.029487590652403393
F3.872736727756055
tp162
sS'Tm'
p163
(F0.00026018462340355935
F3.005892275005505
tp164
sS'Th'
p165
(F0.0011274667014154237
F3.025492046804592
tp166
sS'Ti'
p167
(F0.0007371897663100849
F2.828603430095577
tp168
sS'Te'
p169
(F0.017258913352436105
F3.982317270087316
tp170
sS'Tb'
p171
(F0.00030354872730415256
F3.074491476302311
tp172
sS'Tc'
p173
(F0.002081476987228475
F2.6709143569847376
tp174
sS'Ta'
p175
(F0.003512492415948051
F2.8241489365048755
tp176
sS'Yb'
p177
(F0.009887015689335255
F2.9889651993608384
tp178
sS'Dy'
p179
(F0.00030354872730415256
F3.054000805785083
tp180
sS'I'
p181
(F0.014700431222301105
F4.009044231631527
tp182
sS'U'
p183
(F0.0009540102858130509
F3.0246011480864516
tp184
sS'Y'
p185
(F0.003122215480842712
F2.980056212179435
tp186
sS'Ac'
p187
(F0.0014310154287195764
F3.0985457416921003
tp188
sS'Ag'
p189
(F0.001561107740421356
F2.8045491647057883
tp190
sS'Ir'
p191
(F0.003165579584743305
F2.5301523595185635
tp192
sS'Am'
p193
(F0.0006070974546083051
F3.012128566032487
tp194
sS'Al'
p195
(F0.021898872469799577
F4.008153332913386
tp196
sS'As'
p197
(F0.013399508105283306
F3.7685015777336357
tp198
sS'Ar'
p199
(F0.008022359221609746
F3.4459962417668324
tp200
sS'Au'
p201
(F0.0016912000521231358
F2.9337294788361374
tp202
sS'At'
p203
(F0.012315405507768475
F4.231768911166611
tp204
sS'In'
p205
(F0.02597509823645534
F3.976080979060334
tp206
s.